; Function Attrs: nounwind uwtable
define ptr @l_UInt32_reduceOfNatLT___boxed(ptr noundef %0, ptr noundef %1, ptr noundef %2, ptr noundef %3, ptr noundef %4, ptr noundef %5, ptr noundef %6, ptr noundef %7, ptr noundef %8) #0 {
  %10 = tail call ptr @l_UInt32_reduceOfNatLT(ptr noundef %0, ptr poison, ptr poison, ptr poison, ptr noundef %4, ptr noundef %5, ptr noundef %6, ptr noundef %7, ptr noundef %8)
  %11 = ptrtoint ptr %3 to i64
  %12 = and i64 %11, 1
  %.not = icmp eq i64 %12, 0
  br i1 %.not, label %13, label %lean_dec.exit16

13:                                               ; preds = %9
  %14 = load i32, ptr %3, align 4, !tbaa !8
  %15 = icmp sgt i32 %14, 1
  br i1 %15, label %16, label %18, !prof !11

16:                                               ; preds = %13
  %17 = add nsw i32 %14, -1
  store i32 %17, ptr %3, align 4, !tbaa !8
  br label %lean_dec.exit16

18:                                               ; preds = %13
  %.not.i = icmp eq i32 %14, 0
  br i1 %.not.i, label %lean_dec.exit16, label %19

19:                                               ; preds = %18
  tail call void @lean_dec_ref_cold(ptr noundef nonnull %3) #5
  br label %lean_dec.exit16

lean_dec.exit16:                                  ; preds = %19, %18, %16, %9
  %20 = ptrtoint ptr %2 to i64
  %21 = and i64 %20, 1
  %.not23 = icmp eq i64 %21, 0
  br i1 %.not23, label %22, label %lean_dec.exit15

22:                                               ; preds = %lean_dec.exit16
  %23 = load i32, ptr %2, align 4, !tbaa !8
  %24 = icmp sgt i32 %23, 1
  br i1 %24, label %25, label %27, !prof !11

25:                                               ; preds = %22
  %26 = add nsw i32 %23, -1
  store i32 %26, ptr %2, align 4, !tbaa !8
  br label %lean_dec.exit15

27:                                               ; preds = %22
  %.not.i17 = icmp eq i32 %23, 0
  br i1 %.not.i17, label %lean_dec.exit15, label %28

28:                                               ; preds = %27
  tail call void @lean_dec_ref_cold(ptr noundef nonnull %2) #5
  br label %lean_dec.exit15

lean_dec.exit15:                                  ; preds = %28, %27, %25, %lean_dec.exit16
  %29 = ptrtoint ptr %1 to i64
  %30 = and i64 %29, 1
  %.not24 = icmp eq i64 %30, 0
  br i1 %.not24, label %31, label %lean_dec.exit14

31:                                               ; preds = %lean_dec.exit15
  %32 = load i32, ptr %1, align 4, !tbaa !8
  %33 = icmp sgt i32 %32, 1
  br i1 %33, label %34, label %36, !prof !11

34:                                               ; preds = %31
  %35 = add nsw i32 %32, -1
  store i32 %35, ptr %1, align 4, !tbaa !8
  br label %lean_dec.exit14

36:                                               ; preds = %31
  %.not.i19 = icmp eq i32 %32, 0
  br i1 %.not.i19, label %lean_dec.exit14, label %37

37:                                               ; preds = %36
  tail call void @lean_dec_ref_cold(ptr noundef nonnull %1) #5
  br label %lean_dec.exit14

lean_dec.exit14:                                  ; preds = %37, %36, %34, %lean_dec.exit15
  %38 = ptrtoint ptr %0 to i64
  %39 = and i64 %38, 1
  %.not25 = icmp eq i64 %39, 0
  br i1 %.not25, label %40, label %lean_dec.exit

40:                                               ; preds = %lean_dec.exit14
  %41 = load i32, ptr %0, align 4, !tbaa !8
  %42 = icmp sgt i32 %41, 1
  br i1 %42, label %43, label %45, !prof !11

43:                                               ; preds = %40
  %44 = add nsw i32 %41, -1
  store i32 %44, ptr %0, align 4, !tbaa !8
  br label %lean_dec.exit

45:                                               ; preds = %40
  %.not.i21 = icmp eq i32 %41, 0
  br i1 %.not.i21, label %lean_dec.exit, label %46

46:                                               ; preds = %45
  tail call void @lean_dec_ref_cold(ptr noundef nonnull %0) #5
  br label %lean_dec.exit

lean_dec.exit:                                    ; preds = %46, %45, %43, %lean_dec.exit14
  ret ptr %10
}